target datalayout = "e-m:e-p270:32:32-p271:32:32-p272:64:64-i64:64-i128:128-f80:128-n8:16:32:64-S128"
target triple = "x86_64-pc-linux-gnu"

%"struct.boost::unit_test::(anonymous namespace)::progress_monitor_impl" = type <{ ptr, %"class.boost::scoped_ptr", i8, [7 x i8] }>
%"class.boost::scoped_ptr" = type { ptr }
%"class.std::basic_ostream" = type { ptr, %"class.std::basic_ios" }
%"class.std::basic_ios" = type { %"class.std::ios_base", ptr, i8, i8, ptr, ptr, ptr, ptr }
%"class.std::ios_base" = type { ptr, i64, i64, i32, i32, i32, ptr, %"struct.std::ios_base::_Words", [8 x %"struct.std::ios_base::_Words"], i32, ptr, %"class.std::locale" }
%"struct.std::ios_base::_Words" = type { ptr, i64 }
%"class.std::locale" = type { ptr }

@__dso_handle = external hidden global i8
@_ZZN5boost9unit_test12_GLOBAL__N_19s_pm_implEvE8the_inst = internal global %"struct.boost::unit_test::(anonymous namespace)::progress_monitor_impl" zeroinitializer, align 8
@_ZGVZN5boost9unit_test12_GLOBAL__N_19s_pm_implEvE8the_inst = internal global i64 0, align 8
@_ZSt4cout = external global %"class.std::basic_ostream", align 8

; Function Attrs: mustprogress nounwind uwtable
define linkonce_odr hidden void @_ZN5boost10scoped_ptrINS_9unit_test16progress_displayEEC2EPS2_(ptr noundef nonnull align 8 dereferenceable(8) %0, ptr noundef %1) unnamed_addr #1 comdat align 2 {
  %3 = alloca ptr, align 8
  %4 = alloca ptr, align 8
  store ptr %0, ptr %3, align 8, !tbaa !3
  store ptr %1, ptr %4, align 8, !tbaa !3
  %5 = load ptr, ptr %3, align 8
  %6 = getelementptr inbounds nuw %"class.boost::scoped_ptr", ptr %5, i32 0, i32 0
  %7 = load ptr, ptr %4, align 8, !tbaa !3
  store ptr %7, ptr %6, align 8, !tbaa !35
  ret void
}

; Function Attrs: mustprogress nounwind uwtable
define internal void @_ZN5boost9unit_test12_GLOBAL__N_121progress_monitor_implC2Ev(ptr noundef nonnull align 8 dereferenceable(17) %0) unnamed_addr #1 align 2 {
  %2 = alloca ptr, align 8
  store ptr %0, ptr %2, align 8, !tbaa !3
  %3 = load ptr, ptr %2, align 8
  %4 = getelementptr inbounds nuw %"struct.boost::unit_test::(anonymous namespace)::progress_monitor_impl", ptr %3, i32 0, i32 0
  store ptr @_ZSt4cout, ptr %4, align 8, !tbaa !17
  %5 = getelementptr inbounds nuw %"struct.boost::unit_test::(anonymous namespace)::progress_monitor_impl", ptr %3, i32 0, i32 1
  call void @_ZN5boost10scoped_ptrINS_9unit_test16progress_displayEEC2EPS2_(ptr noundef nonnull align 8 dereferenceable(8) %5, ptr noundef null) #4
  %6 = getelementptr inbounds nuw %"struct.boost::unit_test::(anonymous namespace)::progress_monitor_impl", ptr %3, i32 0, i32 2
  store i8 0, ptr %6, align 8, !tbaa !14
  ret void
}

; Function Attrs: mustprogress uwtable
define internal noundef nonnull align 8 dereferenceable(17) ptr @_ZN5boost9unit_test12_GLOBAL__N_19s_pm_implEv() #5 personality ptr @__gxx_personality_v0 {
  %1 = alloca ptr, align 8
  %2 = alloca i32, align 4
  %3 = load atomic i8, ptr @_ZGVZN5boost9unit_test12_GLOBAL__N_19s_pm_implEvE8the_inst acquire, align 8
  %4 = icmp eq i8 %3, 0
  br i1 %4, label %5, label %11, !prof !7

5:                                                ; preds = %0
  %6 = call i32 @__cxa_guard_acquire(ptr @_ZGVZN5boost9unit_test12_GLOBAL__N_19s_pm_implEvE8the_inst) #4
  %7 = icmp ne i32 %6, 0
  br i1 %7, label %8, label %11

8:                                                ; preds = %5
  invoke void @_ZN5boost9unit_test12_GLOBAL__N_121progress_monitor_implC2Ev(ptr noundef nonnull align 8 dereferenceable(17) @_ZZN5boost9unit_test12_GLOBAL__N_19s_pm_implEvE8the_inst)
          to label %9 unwind label %12

9:                                                ; preds = %8
  %10 = call i32 @__cxa_atexit(ptr @_ZN5boost9unit_test12_GLOBAL__N_121progress_monitor_implD2Ev, ptr @_ZZN5boost9unit_test12_GLOBAL__N_19s_pm_implEvE8the_inst, ptr @__dso_handle) #4
  call void @__cxa_guard_release(ptr @_ZGVZN5boost9unit_test12_GLOBAL__N_19s_pm_implEvE8the_inst) #4
  br label %11

11:                                               ; preds = %9, %5, %0
  ret ptr @_ZZN5boost9unit_test12_GLOBAL__N_19s_pm_implEvE8the_inst

12:                                               ; preds = %8
  %13 = landingpad { ptr, i32 }
          cleanup
  %14 = extractvalue { ptr, i32 } %13, 0
  store ptr %14, ptr %1, align 8
  %15 = extractvalue { ptr, i32 } %13, 1
  store i32 %15, ptr %2, align 4
  call void @__cxa_guard_abort(ptr @_ZGVZN5boost9unit_test12_GLOBAL__N_19s_pm_implEvE8the_inst) #4
  br label %16

16:                                               ; preds = %12
  %17 = load ptr, ptr %1, align 8
  %18 = load i32, ptr %2, align 4
  %19 = insertvalue { ptr, i32 } poison, ptr %17, 0
  %20 = insertvalue { ptr, i32 } %19, i32 %18, 1
  resume { ptr, i32 } %20
}

; Function Attrs: mustprogress uwtable
define void @_ZN5boost9unit_test18progress_monitor_t10set_streamERSo(ptr noundef nonnull align 8 dereferenceable(8) %0, ptr noundef nonnull align 8 dereferenceable(8) %1) #5 align 2 {
  %3 = alloca ptr, align 8
  %4 = alloca ptr, align 8
  store ptr %0, ptr %3, align 8, !tbaa !3
  store ptr %1, ptr %4, align 8, !tbaa !3
  %5 = load ptr, ptr %4, align 8, !tbaa !3
  %6 = call noundef nonnull align 8 dereferenceable(17) ptr @_ZN5boost9unit_test12_GLOBAL__N_19s_pm_implEv()
  %7 = getelementptr inbounds nuw %"struct.boost::unit_test::(anonymous namespace)::progress_monitor_impl", ptr %6, i32 0, i32 0
  store ptr %5, ptr %7, align 8, !tbaa !17
  ret void
}