; Function Attrs: mustprogress nofree nounwind uwtable
define void @_ZN5boost9unit_test18progress_monitor_t10set_streamERSo(ptr nocapture noundef nonnull readnone align 8 dereferenceable(8) %0, ptr noundef nonnull align 8 dereferenceable(8) %1) local_unnamed_addr #0 align 2 personality ptr @__gxx_personality_v0 {
  %3 = load atomic i8, ptr @_ZGVZN5boost9unit_test12_GLOBAL__N_19s_pm_implEvE8the_inst acquire, align 8
  %4 = icmp eq i8 %3, 0
  br i1 %4, label %5, label %_ZN5boost9unit_test12_GLOBAL__N_19s_pm_implEv.exit, !prof !3

5:                                                ; preds = %2
  %6 = tail call i32 @__cxa_guard_acquire(ptr nonnull @_ZGVZN5boost9unit_test12_GLOBAL__N_19s_pm_implEvE8the_inst) #22
  %.not.i = icmp eq i32 %6, 0
  br i1 %.not.i, label %_ZN5boost9unit_test12_GLOBAL__N_19s_pm_implEv.exit, label %7

7:                                                ; preds = %5
  store ptr @_ZSt4cout, ptr @_ZZN5boost9unit_test12_GLOBAL__N_19s_pm_implEvE8the_inst, align 8, !tbaa !19
  store ptr null, ptr getelementptr inbounds nuw (i8, ptr @_ZZN5boost9unit_test12_GLOBAL__N_19s_pm_implEvE8the_inst, i64 8), align 8, !tbaa !22
  store i8 0, ptr getelementptr inbounds nuw (i8, ptr @_ZZN5boost9unit_test12_GLOBAL__N_19s_pm_implEvE8the_inst, i64 16), align 8, !tbaa !23
  %8 = tail call i32 @__cxa_atexit(ptr nonnull @_ZN5boost9unit_test12_GLOBAL__N_121progress_monitor_implD2Ev, ptr nonnull @_ZZN5boost9unit_test12_GLOBAL__N_19s_pm_implEvE8the_inst, ptr nonnull @__dso_handle) #22
  tail call void @__cxa_guard_release(ptr nonnull @_ZGVZN5boost9unit_test12_GLOBAL__N_19s_pm_implEvE8the_inst) #22
  br label %_ZN5boost9unit_test12_GLOBAL__N_19s_pm_implEv.exit

_ZN5boost9unit_test12_GLOBAL__N_19s_pm_implEv.exit: ; preds = %2, %5, %7
  store ptr %1, ptr @_ZZN5boost9unit_test12_GLOBAL__N_19s_pm_implEvE8the_inst, align 8, !tbaa !19
  ret void
}